target datalayout = "e-m:e-p270:32:32-p271:32:32-p272:64:64-i64:64-i128:128-f80:128-n8:16:32:64-S128"
target triple = "x86_64-pc-linux-gnu"

@proto_register_spdy.ett = internal global [6 x ptr] [ptr @ett_spdy, ptr @ett_spdy_flags, ptr @ett_spdy_header_block, ptr @ett_spdy_header, ptr @ett_spdy_setting, ptr @ett_spdy_encoded_entity], align 16
@.str.75 = private unnamed_addr constant [5 x i8] c"SPDY\00", align 1
@.str.76 = private unnamed_addr constant [5 x i8] c"spdy\00", align 1
@proto_spdy = internal global i32 0, align 4
@spdy_handle = internal global ptr null, align 8
@.str.77 = private unnamed_addr constant [21 x i8] c"assemble_data_frames\00", align 1
@.str.78 = private unnamed_addr constant [58 x i8] c"Assemble SPDY bodies that consist of multiple DATA frames\00", align 1
@.str.79 = private unnamed_addr constant [87 x i8] c"Whether the SPDY dissector should reassemble multiple data frames into an entity body.\00", align 1
@spdy_assemble_entity_bodies = internal global i8 1, align 1
@.str.80 = private unnamed_addr constant [19 x i8] c"decompress_headers\00", align 1
@.str.81 = private unnamed_addr constant [24 x i8] c"Uncompress SPDY headers\00", align 1
@.str.82 = private unnamed_addr constant [36 x i8] c"Whether to uncompress SPDY headers.\00", align 1
@spdy_decompress_headers = internal global i8 1, align 1
@.str.83 = private unnamed_addr constant [16 x i8] c"decompress_body\00", align 1
@.str.84 = private unnamed_addr constant [25 x i8] c"Uncompress entity bodies\00", align 1
@.str.85 = private unnamed_addr constant [83 x i8] c"Whether to uncompress entity bodies that are compressed using \22Content-Encoding: \22\00", align 1
@spdy_decompress_body = internal global i8 1, align 1
@spdy_tap = internal global i32 0, align 4
@.str.86 = private unnamed_addr constant [8 x i8] c"spdy_eo\00", align 1
@spdy_eo_tap = internal global i32 0, align 4

; Function Attrs: null_pointer_is_valid sspstrong uwtable
define hidden void @proto_register_spdy() #0 {
  %1 = alloca ptr, align 8
  %2 = alloca ptr, align 8
  call void @llvm.lifetime.start.p0(i64 8, ptr %1) #11
  call void @llvm.lifetime.start.p0(i64 8, ptr %2) #11
  %3 = call i32 @proto_register_protocol(ptr noundef @.str.75, ptr noundef @.str.75, ptr noundef @.str.76)
  store i32 %3, ptr @proto_spdy, align 4
  %4 = load i32, ptr @proto_spdy, align 4
  call void @proto_register_field_array(i32 noundef %4, ptr noundef @proto_register_spdy.hf, i32 noundef 30)
  call void @proto_register_subtree_array(ptr noundef @proto_register_spdy.ett, i32 noundef 6)
  %5 = load i32, ptr @proto_spdy, align 4
  %6 = call ptr @expert_register_protocol(i32 noundef %5)
  store ptr %6, ptr %2, align 8
  %7 = load ptr, ptr %2, align 8
  call void @expert_register_field_array(ptr noundef %7, ptr noundef @proto_register_spdy.ei, i32 noundef 7)
  %8 = load i32, ptr @proto_spdy, align 4
  %9 = call ptr @register_dissector(ptr noundef @.str.76, ptr noundef @dissect_spdy, i32 noundef %8)
  store ptr %9, ptr @spdy_handle, align 8
  %10 = load i32, ptr @proto_spdy, align 4
  %11 = call ptr @prefs_register_protocol(i32 noundef %10, ptr noundef null)
  store ptr %11, ptr %1, align 8
  %12 = load ptr, ptr %1, align 8
  call void @prefs_register_bool_preference(ptr noundef %12, ptr noundef @.str.77, ptr noundef @.str.78, ptr noundef @.str.79, ptr noundef @spdy_assemble_entity_bodies)
  %13 = load ptr, ptr %1, align 8
  call void @prefs_register_bool_preference(ptr noundef %13, ptr noundef @.str.80, ptr noundef @.str.81, ptr noundef @.str.82, ptr noundef @spdy_decompress_headers)
  %14 = load ptr, ptr %1, align 8
  call void @prefs_register_bool_preference(ptr noundef %14, ptr noundef @.str.83, ptr noundef @.str.84, ptr noundef @.str.85, ptr noundef @spdy_decompress_body)
  call void @register_init_routine(ptr noundef @spdy_init_protocol)
  %15 = call i32 @register_tap(ptr noundef @.str.76)
  store i32 %15, ptr @spdy_tap, align 4
  %16 = call i32 @register_tap(ptr noundef @.str.86)
  store i32 %16, ptr @spdy_eo_tap, align 4
  call void @llvm.lifetime.end.p0(i64 8, ptr %2) #11
  call void @llvm.lifetime.end.p0(i64 8, ptr %1) #11
  ret void
}