; Function Attrs: null_pointer_is_valid sspstrong uwtable
define hidden void @proto_register_spdy() local_unnamed_addr #0 {
  %1 = tail call i32 @proto_register_protocol(ptr noundef nonnull @.str.75, ptr noundef nonnull @.str.75, ptr noundef nonnull @.str.76)
  store i32 %1, ptr @proto_spdy, align 4
  tail call void @proto_register_field_array(i32 noundef %1, ptr noundef nonnull @proto_register_spdy.hf, i32 noundef 30)
  tail call void @proto_register_subtree_array(ptr noundef nonnull @proto_register_spdy.ett, i32 noundef 6)
  %2 = load i32, ptr @proto_spdy, align 4
  %3 = tail call ptr @expert_register_protocol(i32 noundef %2)
  tail call void @expert_register_field_array(ptr noundef %3, ptr noundef nonnull @proto_register_spdy.ei, i32 noundef 7)
  %4 = load i32, ptr @proto_spdy, align 4
  %5 = tail call ptr @register_dissector(ptr noundef nonnull @.str.76, ptr noundef nonnull @dissect_spdy, i32 noundef %4)
  store ptr %5, ptr @spdy_handle, align 8
  %6 = load i32, ptr @proto_spdy, align 4
  %7 = tail call ptr @prefs_register_protocol(i32 noundef %6, ptr noundef null)
  tail call void @prefs_register_bool_preference(ptr noundef %7, ptr noundef nonnull @.str.77, ptr noundef nonnull @.str.78, ptr noundef nonnull @.str.79, ptr noundef nonnull @spdy_assemble_entity_bodies)
  tail call void @prefs_register_bool_preference(ptr noundef %7, ptr noundef nonnull @.str.80, ptr noundef nonnull @.str.81, ptr noundef nonnull @.str.82, ptr noundef nonnull @spdy_decompress_headers)
  tail call void @prefs_register_bool_preference(ptr noundef %7, ptr noundef nonnull @.str.83, ptr noundef nonnull @.str.84, ptr noundef nonnull @.str.85, ptr noundef nonnull @spdy_decompress_body)
  tail call void @register_init_routine(ptr noundef nonnull @spdy_init_protocol)
  %8 = tail call i32 @register_tap(ptr noundef nonnull @.str.76)
  %9 = tail call i32 @register_tap(ptr noundef nonnull @.str.86)
  ret void
}